target datalayout = "e-m:e-p270:32:32-p271:32:32-p272:64:64-i64:64-i128:128-f80:128-n8:16:32:64-S128"
target triple = "x86_64-pc-linux-gnu"

%"class.icu_77::BytesTrie" = type <{ ptr, ptr, ptr, i32, [4 x i8] }>
%"class.icu_77::StringPiece" = type <{ ptr, i32, [4 x i8] }>
%"struct.icu_77::UInitOnce" = type { %"struct.std::atomic", i32 }
%"struct.std::atomic" = type { %"struct.std::__atomic_base" }
%"struct.std::__atomic_base" = type { i32 }
%"class.icu_77::(anonymous namespace)::Parser" = type <{ i32, [4 x i8], %"class.icu_77::StringPiece", %"class.icu_77::BytesTrie", i8, i8, [6 x i8] }>

@_ZN6icu_7712_GLOBAL__N_119gUnitExtrasInitOnceE = internal global { { i32 }, i32 } zeroinitializer, align 4
@_ZN6icu_7712_GLOBAL__N_129gSerializedUnitExtrasStemTrieE = internal global ptr null, align 8
@.str.60 = private unnamed_addr constant [1 x i8] zeroinitializer, align 1
@.str.61 = private unnamed_addr constant [1 x i16] zeroinitializer, align 2

; Function Attrs: noinline noreturn nounwind uwtable
define linkonce_odr hidden void @__clang_call_terminate(ptr noundef %0) #4 comdat {
  %2 = call ptr @__cxa_begin_catch(ptr %0) #14
  call void @_ZSt9terminatev() #16
  unreachable
}

; Function Attrs: mustprogress nounwind uwtable
define linkonce_odr noundef i32 @_ZStanSt12memory_orderSt23__memory_order_modifier(i32 noundef %0, i32 noundef %1) #0 comdat {
  %3 = alloca i32, align 4
  %4 = alloca i32, align 4
  store i32 %0, ptr %3, align 4, !tbaa !124
  store i32 %1, ptr %4, align 4, !tbaa !126
  %5 = load i32, ptr %3, align 4, !tbaa !124
  %6 = load i32, ptr %4, align 4, !tbaa !126
  %7 = and i32 %5, %6
  ret i32 %7
}

; Function Attrs: alwaysinline mustprogress nounwind uwtable
define linkonce_odr noundef i32 @_ZNKSt13__atomic_baseIiE4loadESt12memory_order(ptr noundef nonnull align 4 dereferenceable(4) %0, i32 noundef %1) #12 comdat align 2 personality ptr @__gxx_personality_v0 {
  %3 = alloca ptr, align 8
  %4 = alloca i32, align 4
  %5 = alloca i32, align 4
  %6 = alloca i32, align 4
  store ptr %0, ptr %3, align 8, !tbaa !122
  store i32 %1, ptr %4, align 4, !tbaa !124
  %7 = load ptr, ptr %3, align 8
  call void @llvm.lifetime.start.p0(i64 4, ptr %5) #14
  %8 = load i32, ptr %4, align 4, !tbaa !124
  %9 = invoke noundef i32 @_ZStanSt12memory_orderSt23__memory_order_modifier(i32 noundef %8, i32 noundef 65535)
          to label %10 unwind label %27

10:                                               ; preds = %2
  store i32 %9, ptr %5, align 4, !tbaa !124
  br label %11

11:                                               ; preds = %10
  br label %12

12:                                               ; preds = %11
  br label %13

13:                                               ; preds = %12
  br label %14

14:                                               ; preds = %13
  br label %15

15:                                               ; preds = %14
  br label %16

16:                                               ; preds = %15
  %17 = getelementptr inbounds nuw %"struct.std::__atomic_base", ptr %7, i32 0, i32 0
  %18 = load i32, ptr %4, align 4, !tbaa !124
  switch i32 %18, label %19 [
    i32 1, label %21
    i32 2, label %21
    i32 5, label %23
  ]

19:                                               ; preds = %16
  %20 = load atomic i32, ptr %17 monotonic, align 4
  store i32 %20, ptr %6, align 4
  br label %25

21:                                               ; preds = %16, %16
  %22 = load atomic i32, ptr %17 acquire, align 4
  store i32 %22, ptr %6, align 4
  br label %25

23:                                               ; preds = %16
  %24 = load atomic i32, ptr %17 seq_cst, align 4
  store i32 %24, ptr %6, align 4
  br label %25

25:                                               ; preds = %23, %21, %19
  %26 = load i32, ptr %6, align 4, !tbaa !14
  call void @llvm.lifetime.end.p0(i64 4, ptr %5) #14
  ret i32 %26

27:                                               ; preds = %2
  %28 = landingpad { ptr, i32 }
          catch ptr null
  %29 = extractvalue { ptr, i32 } %28, 0
  call void @__clang_call_terminate(ptr %29) #16
  unreachable
}

; Function Attrs: inlinehint mustprogress nounwind uwtable
define linkonce_odr noundef i32 @_ZN6icu_7716umtx_loadAcquireERSt6atomicIiE(ptr noundef nonnull align 4 dereferenceable(4) %0) #2 comdat {
  %2 = alloca ptr, align 8
  store ptr %0, ptr %2, align 8, !tbaa !120
  %3 = load ptr, ptr %2, align 8, !tbaa !120
  %4 = call noundef i32 @_ZNKSt13__atomic_baseIiE4loadESt12memory_order(ptr noundef nonnull align 4 dereferenceable(4) %3, i32 noundef 2) #14
  ret i32 %4
}

; Function Attrs: mustprogress nounwind uwtable
define linkonce_odr void @_ZN6icu_779BytesTrieC2EPKv(ptr noundef nonnull align 8 dereferenceable(28) %0, ptr noundef %1) unnamed_addr #0 comdat align 2 {
  %3 = alloca ptr, align 8
  %4 = alloca ptr, align 8
  store ptr %0, ptr %3, align 8, !tbaa !53
  store ptr %1, ptr %4, align 8, !tbaa !22
  %5 = load ptr, ptr %3, align 8
  %6 = getelementptr inbounds nuw %"class.icu_77::BytesTrie", ptr %5, i32 0, i32 0
  store ptr null, ptr %6, align 8, !tbaa !55
  %7 = getelementptr inbounds nuw %"class.icu_77::BytesTrie", ptr %5, i32 0, i32 1
  %8 = load ptr, ptr %4, align 8, !tbaa !22
  store ptr %8, ptr %7, align 8, !tbaa !57
  %9 = getelementptr inbounds nuw %"class.icu_77::BytesTrie", ptr %5, i32 0, i32 2
  %10 = getelementptr inbounds nuw %"class.icu_77::BytesTrie", ptr %5, i32 0, i32 1
  %11 = load ptr, ptr %10, align 8, !tbaa !57
  store ptr %11, ptr %9, align 8, !tbaa !58
  %12 = getelementptr inbounds nuw %"class.icu_77::BytesTrie", ptr %5, i32 0, i32 3
  store i32 -1, ptr %12, align 8, !tbaa !59
  ret void
}

; Function Attrs: mustprogress uwtable
define internal void @_ZN6icu_7712_GLOBAL__N_16ParserC2ENS_11StringPieceE(ptr noundef nonnull align 8 dereferenceable(58) %0, ptr %1, i32 %2) unnamed_addr #1 align 2 {
  %4 = alloca %"class.icu_77::StringPiece", align 8
  %5 = alloca ptr, align 8
  %6 = getelementptr inbounds nuw { ptr, i32 }, ptr %4, i32 0, i32 0
  store ptr %1, ptr %6, align 8
  %7 = getelementptr inbounds nuw { ptr, i32 }, ptr %4, i32 0, i32 1
  store i32 %2, ptr %7, align 8
  store ptr %0, ptr %5, align 8, !tbaa !98
  %8 = load ptr, ptr %5, align 8
  %9 = getelementptr inbounds nuw %"class.icu_77::(anonymous namespace)::Parser", ptr %8, i32 0, i32 0
  store i32 0, ptr %9, align 8, !tbaa !185
  %10 = getelementptr inbounds nuw %"class.icu_77::(anonymous namespace)::Parser", ptr %8, i32 0, i32 2
  call void @llvm.memcpy.p0.p0.i64(ptr align 8 %10, ptr align 8 %4, i64 16, i1 false)
  %11 = getelementptr inbounds nuw %"class.icu_77::(anonymous namespace)::Parser", ptr %8, i32 0, i32 3
  %12 = load ptr, ptr @_ZN6icu_7712_GLOBAL__N_129gSerializedUnitExtrasStemTrieE, align 8, !tbaa !17
  call void @_ZN6icu_779BytesTrieC2EPKv(ptr noundef nonnull align 8 dereferenceable(28) %11, ptr noundef %12)
  %13 = getelementptr inbounds nuw %"class.icu_77::(anonymous namespace)::Parser", ptr %8, i32 0, i32 4
  store i8 0, ptr %13, align 8, !tbaa !187
  %14 = getelementptr inbounds nuw %"class.icu_77::(anonymous namespace)::Parser", ptr %8, i32 0, i32 5
  store i8 0, ptr %14, align 1, !tbaa !188
  ret void
}

; Function Attrs: inlinehint mustprogress uwtable
define linkonce_odr void @_ZN6icu_7713umtx_initOnceERNS_9UInitOnceEPFvR10UErrorCodeES3_(ptr noundef nonnull align 4 dereferenceable(8) %0, ptr noundef %1, ptr noundef nonnull align 4 dereferenceable(4) %2) #3 comdat {
  %4 = alloca ptr, align 8
  %5 = alloca ptr, align 8
  %6 = alloca ptr, align 8
  store ptr %0, ptr %4, align 8, !tbaa !37
  store ptr %1, ptr %5, align 8, !tbaa !22
  store ptr %2, ptr %6, align 8, !tbaa !22
  %7 = load ptr, ptr %6, align 8, !tbaa !22
  %8 = load i32, ptr %7, align 4, !tbaa !15
  %9 = call noundef signext i8 @_ZL9U_FAILURE10UErrorCode(i32 noundef %8)
  %10 = icmp ne i8 %9, 0
  br i1 %10, label %11, label %12

11:                                               ; preds = %3
  br label %41

12:                                               ; preds = %3
  %13 = load ptr, ptr %4, align 8, !tbaa !37
  %14 = getelementptr inbounds nuw %"struct.icu_77::UInitOnce", ptr %13, i32 0, i32 0
  %15 = call noundef i32 @_ZN6icu_7716umtx_loadAcquireERSt6atomicIiE(ptr noundef nonnull align 4 dereferenceable(4) %14)
  %16 = icmp ne i32 %15, 2
  br i1 %16, label %17, label %29

17:                                               ; preds = %12
  %18 = load ptr, ptr %4, align 8, !tbaa !37
  %19 = call noundef signext i8 @_ZN6icu_7720umtx_initImplPreInitERNS_9UInitOnceE(ptr noundef nonnull align 4 dereferenceable(8) %18)
  %20 = icmp ne i8 %19, 0
  br i1 %20, label %21, label %29

21:                                               ; preds = %17
  %22 = load ptr, ptr %5, align 8, !tbaa !22
  %23 = load ptr, ptr %6, align 8, !tbaa !22
  call void %22(ptr noundef nonnull align 4 dereferenceable(4) %23)
  %24 = load ptr, ptr %6, align 8, !tbaa !22
  %25 = load i32, ptr %24, align 4, !tbaa !15
  %26 = load ptr, ptr %4, align 8, !tbaa !37
  %27 = getelementptr inbounds nuw %"struct.icu_77::UInitOnce", ptr %26, i32 0, i32 1
  store i32 %25, ptr %27, align 4, !tbaa !39
  %28 = load ptr, ptr %4, align 8, !tbaa !37
  call void @_ZN6icu_7721umtx_initImplPostInitERNS_9UInitOnceE(ptr noundef nonnull align 4 dereferenceable(8) %28)
  br label %41

29:                                               ; preds = %17, %12
  %30 = load ptr, ptr %4, align 8, !tbaa !37
  %31 = getelementptr inbounds nuw %"struct.icu_77::UInitOnce", ptr %30, i32 0, i32 1
  %32 = load i32, ptr %31, align 4, !tbaa !39
  %33 = call noundef signext i8 @_ZL9U_FAILURE10UErrorCode(i32 noundef %32)
  %34 = icmp ne i8 %33, 0
  br i1 %34, label %35, label %40

35:                                               ; preds = %29
  %36 = load ptr, ptr %4, align 8, !tbaa !37
  %37 = getelementptr inbounds nuw %"struct.icu_77::UInitOnce", ptr %36, i32 0, i32 1
  %38 = load i32, ptr %37, align 4, !tbaa !39
  %39 = load ptr, ptr %6, align 8, !tbaa !22
  store i32 %38, ptr %39, align 4, !tbaa !15
  br label %40

40:                                               ; preds = %35, %29
  br label %41

41:                                               ; preds = %11, %40, %21
  ret void
}

; Function Attrs: mustprogress uwtable
define internal void @_ZN6icu_7712_GLOBAL__N_16ParserC2Ev(ptr noundef nonnull align 8 dereferenceable(58) %0) unnamed_addr #1 align 2 {
  %2 = alloca ptr, align 8
  store ptr %0, ptr %2, align 8, !tbaa !98
  %3 = load ptr, ptr %2, align 8
  %4 = getelementptr inbounds nuw %"class.icu_77::(anonymous namespace)::Parser", ptr %3, i32 0, i32 0
  store i32 0, ptr %4, align 8, !tbaa !185
  %5 = getelementptr inbounds nuw %"class.icu_77::(anonymous namespace)::Parser", ptr %3, i32 0, i32 2
  call void @_ZN6icu_7711StringPieceC1EPKc(ptr noundef nonnull align 8 dereferenceable(12) %5, ptr noundef @.str.60)
  %6 = getelementptr inbounds nuw %"class.icu_77::(anonymous namespace)::Parser", ptr %3, i32 0, i32 3
  call void @_ZN6icu_779BytesTrieC2EPKv(ptr noundef nonnull align 8 dereferenceable(28) %6, ptr noundef @.str.61)
  %7 = getelementptr inbounds nuw %"class.icu_77::(anonymous namespace)::Parser", ptr %3, i32 0, i32 4
  store i8 0, ptr %7, align 8, !tbaa !187
  %8 = getelementptr inbounds nuw %"class.icu_77::(anonymous namespace)::Parser", ptr %3, i32 0, i32 5
  store i8 0, ptr %8, align 1, !tbaa !188
  ret void
}

; Function Attrs: inlinehint mustprogress nounwind uwtable
define internal noundef signext i8 @_ZL9U_FAILURE10UErrorCode(i32 noundef %0) #2 {
  %2 = alloca i32, align 4
  store i32 %0, ptr %2, align 4, !tbaa !15
  %3 = load i32, ptr %2, align 4, !tbaa !15
  %4 = icmp sgt i32 %3, 0
  %5 = zext i1 %4 to i8
  ret i8 %5
}

; Function Attrs: mustprogress uwtable
define internal void @_ZN6icu_7712_GLOBAL__N_16Parser4fromENS_11StringPieceER10UErrorCode(ptr dead_on_unwind noalias writable sret(%"class.icu_77::(anonymous namespace)::Parser") align 8 %0, ptr %1, i32 %2, ptr noundef nonnull align 4 dereferenceable(4) %3) #1 align 2 {
  %5 = alloca ptr, align 8
  %6 = alloca %"class.icu_77::StringPiece", align 8
  %7 = alloca ptr, align 8
  %8 = alloca %"class.icu_77::StringPiece", align 8
  store ptr %0, ptr %5, align 8
  %9 = getelementptr inbounds nuw { ptr, i32 }, ptr %6, i32 0, i32 0
  store ptr %1, ptr %9, align 8
  %10 = getelementptr inbounds nuw { ptr, i32 }, ptr %6, i32 0, i32 1
  store i32 %2, ptr %10, align 8
  store ptr %3, ptr %7, align 8, !tbaa !22
  %11 = load ptr, ptr %7, align 8, !tbaa !22
  %12 = load i32, ptr %11, align 4, !tbaa !15
  %13 = call noundef signext i8 @_ZL9U_FAILURE10UErrorCode(i32 noundef %12)
  %14 = icmp ne i8 %13, 0
  br i1 %14, label %15, label %16

15:                                               ; preds = %4
  call void @_ZN6icu_7712_GLOBAL__N_16ParserC2Ev(ptr noundef nonnull align 8 dereferenceable(58) %0)
  br label %28

16:                                               ; preds = %4
  %17 = load ptr, ptr %7, align 8, !tbaa !22
  call void @_ZN6icu_7713umtx_initOnceERNS_9UInitOnceEPFvR10UErrorCodeES3_(ptr noundef nonnull align 4 dereferenceable(8) @_ZN6icu_7712_GLOBAL__N_119gUnitExtrasInitOnceE, ptr noundef @_ZN6icu_7712_GLOBAL__N_114initUnitExtrasER10UErrorCode, ptr noundef nonnull align 4 dereferenceable(4) %17)
  %18 = load ptr, ptr %7, align 8, !tbaa !22
  %19 = load i32, ptr %18, align 4, !tbaa !15
  %20 = call noundef signext i8 @_ZL9U_FAILURE10UErrorCode(i32 noundef %19)
  %21 = icmp ne i8 %20, 0
  br i1 %21, label %22, label %23

22:                                               ; preds = %16
  call void @_ZN6icu_7712_GLOBAL__N_16ParserC2Ev(ptr noundef nonnull align 8 dereferenceable(58) %0)
  br label %28

23:                                               ; preds = %16
  call void @llvm.memcpy.p0.p0.i64(ptr align 8 %8, ptr align 8 %6, i64 16, i1 false)
  %24 = getelementptr inbounds nuw { ptr, i32 }, ptr %8, i32 0, i32 0
  %25 = load ptr, ptr %24, align 8
  %26 = getelementptr inbounds nuw { ptr, i32 }, ptr %8, i32 0, i32 1
  %27 = load i32, ptr %26, align 8
  call void @_ZN6icu_7712_GLOBAL__N_16ParserC2ENS_11StringPieceE(ptr noundef nonnull align 8 dereferenceable(58) %0, ptr %25, i32 %27)
  br label %28

28:                                               ; preds = %23, %22, %15
  ret void
}