; Function Attrs: mustprogress uwtable
define internal fastcc void @_ZN6icu_7712_GLOBAL__N_16Parser4fromENS_11StringPieceER10UErrorCode(ptr dead_on_unwind noalias nonnull writable align 8 initializes((0, 4)) %0, ptr %1, i32 %2, ptr noundef nonnull align 4 dereferenceable(4) %3) unnamed_addr #1 align 2 personality ptr @__gxx_personality_v0 {
  %5 = load i32, ptr %3, align 4, !tbaa !13
  %6 = icmp slt i32 %5, 1
  br i1 %6, label %10, label %7

7:                                                ; preds = %4
  store i32 0, ptr %0, align 8, !tbaa !93
  %8 = getelementptr inbounds nuw i8, ptr %0, i64 8
  tail call void @_ZN6icu_7711StringPieceC1EPKc(ptr noundef nonnull align 8 dereferenceable(12) %8, ptr noundef nonnull @.str.60)
  %9 = getelementptr inbounds nuw i8, ptr %0, i64 24
  store ptr null, ptr %9, align 8, !tbaa !23
  br label %27

10:                                               ; preds = %4
  %11 = load atomic i32, ptr @_ZN6icu_7712_GLOBAL__N_119gUnitExtrasInitOnceE acquire, align 4
  %.not11.i = icmp eq i32 %11, 2
  br i1 %.not11.i, label %16, label %12

12:                                               ; preds = %10
  %13 = tail call noundef signext i8 @_ZN6icu_7720umtx_initImplPreInitERNS_9UInitOnceE(ptr noundef nonnull align 4 dereferenceable(8) @_ZN6icu_7712_GLOBAL__N_119gUnitExtrasInitOnceE)
  %.not12.i = icmp eq i8 %13, 0
  br i1 %.not12.i, label %16, label %14

14:                                               ; preds = %12
  tail call fastcc void @_ZN6icu_7712_GLOBAL__N_114initUnitExtrasER10UErrorCode(ptr noundef nonnull align 4 dereferenceable(4) %3)
  %15 = load i32, ptr %3, align 4, !tbaa !13
  store i32 %15, ptr getelementptr inbounds nuw (i8, ptr @_ZN6icu_7712_GLOBAL__N_119gUnitExtrasInitOnceE, i64 4), align 4, !tbaa !18
  tail call void @_ZN6icu_7721umtx_initImplPostInitERNS_9UInitOnceE(ptr noundef nonnull align 4 dereferenceable(8) @_ZN6icu_7712_GLOBAL__N_119gUnitExtrasInitOnceE)
  br label %_ZN6icu_7713umtx_initOnceERNS_9UInitOnceEPFvR10UErrorCodeES3_.exit

16:                                               ; preds = %12, %10
  %17 = load i32, ptr getelementptr inbounds nuw (i8, ptr @_ZN6icu_7712_GLOBAL__N_119gUnitExtrasInitOnceE, i64 4), align 4, !tbaa !18
  %18 = icmp slt i32 %17, 1
  br i1 %18, label %_ZN6icu_7713umtx_initOnceERNS_9UInitOnceEPFvR10UErrorCodeES3_.exit, label %_ZN6icu_7713umtx_initOnceERNS_9UInitOnceEPFvR10UErrorCodeES3_.exit.thread

_ZN6icu_7713umtx_initOnceERNS_9UInitOnceEPFvR10UErrorCodeES3_.exit.thread: ; preds = %16
  store i32 %17, ptr %3, align 4, !tbaa !13
  br label %20

_ZN6icu_7713umtx_initOnceERNS_9UInitOnceEPFvR10UErrorCodeES3_.exit: ; preds = %14, %16
  %.pr = load i32, ptr %3, align 4, !tbaa !13
  %19 = icmp slt i32 %.pr, 1
  br i1 %19, label %23, label %20

20:                                               ; preds = %_ZN6icu_7713umtx_initOnceERNS_9UInitOnceEPFvR10UErrorCodeES3_.exit.thread, %_ZN6icu_7713umtx_initOnceERNS_9UInitOnceEPFvR10UErrorCodeES3_.exit
  store i32 0, ptr %0, align 8, !tbaa !93
  %21 = getelementptr inbounds nuw i8, ptr %0, i64 8
  tail call void @_ZN6icu_7711StringPieceC1EPKc(ptr noundef nonnull align 8 dereferenceable(12) %21, ptr noundef nonnull @.str.60)
  %22 = getelementptr inbounds nuw i8, ptr %0, i64 24
  store ptr null, ptr %22, align 8, !tbaa !23
  br label %27

23:                                               ; preds = %_ZN6icu_7713umtx_initOnceERNS_9UInitOnceEPFvR10UErrorCodeES3_.exit
  store i32 0, ptr %0, align 8, !tbaa !93
  %24 = getelementptr inbounds nuw i8, ptr %0, i64 8
  store ptr %1, ptr %24, align 8
  %.sroa.2.0..sroa_idx.i = getelementptr inbounds nuw i8, ptr %0, i64 16
  store i32 %2, ptr %.sroa.2.0..sroa_idx.i, align 8
  %25 = getelementptr inbounds nuw i8, ptr %0, i64 24
  %26 = load ptr, ptr @_ZN6icu_7712_GLOBAL__N_129gSerializedUnitExtrasStemTrieE, align 8, !tbaa !22
  store ptr null, ptr %25, align 8, !tbaa !23
  br label %27

27:                                               ; preds = %23, %20, %7
  %.sink7 = phi ptr [ %26, %23 ], [ @.str.61, %20 ], [ @.str.61, %7 ]
  %28 = getelementptr inbounds nuw i8, ptr %0, i64 32
  store ptr %.sink7, ptr %28, align 8, !tbaa !25
  %29 = getelementptr inbounds nuw i8, ptr %0, i64 40
  store ptr %.sink7, ptr %29, align 8, !tbaa !26
  %30 = getelementptr inbounds nuw i8, ptr %0, i64 48
  store i32 -1, ptr %30, align 8, !tbaa !27
  %31 = getelementptr inbounds nuw i8, ptr %0, i64 56
  store i8 0, ptr %31, align 8, !tbaa !96
  %32 = getelementptr inbounds nuw i8, ptr %0, i64 57
  store i8 0, ptr %32, align 1, !tbaa !97
  ret void
}